; Function Attrs: nounwind uwtable
define internal ptr @test_pytime_object_to_time_t(ptr readnone captures(none) %0, ptr noundef %1) #0 {
  %3 = alloca ptr, align 8
  %4 = alloca i64, align 8
  %5 = alloca i32, align 4
  call void @llvm.lifetime.start.p0(i64 8, ptr nonnull %3) #3
  call void @llvm.lifetime.start.p0(i64 8, ptr nonnull %4) #3
  call void @llvm.lifetime.start.p0(i64 4, ptr nonnull %5) #3
  %6 = call i32 (ptr, ptr, ...) @PyArg_ParseTuple(ptr noundef %1, ptr noundef nonnull @.str.12, ptr noundef nonnull %3, ptr noundef nonnull %5) #3
  %.not = icmp eq i32 %6, 0
  br i1 %.not, label %16, label %7

7:                                                ; preds = %2
  %8 = load i32, ptr %5, align 4, !tbaa !8
  %or.cond5.i = icmp ugt i32 %8, 3
  br i1 %or.cond5.i, label %check_time_rounding.exit.thread, label %check_time_rounding.exit

check_time_rounding.exit.thread:                  ; preds = %7
  %9 = load ptr, ptr @PyExc_ValueError, align 8, !tbaa !3
  call void @PyErr_SetString(ptr noundef %9, ptr noundef nonnull @.str.13) #3
  br label %16

check_time_rounding.exit:                         ; preds = %7
  %10 = load ptr, ptr %3, align 8, !tbaa !3
  %11 = call i32 @_PyTime_ObjectToTime_t(ptr noundef %10, ptr noundef nonnull %4, i32 noundef %8) #3
  %12 = icmp eq i32 %11, -1
  br i1 %12, label %16, label %13

13:                                               ; preds = %check_time_rounding.exit
  %14 = load i64, ptr %4, align 8, !tbaa !10
  %15 = call ptr @_PyLong_FromTime_t(i64 noundef %14) #3
  br label %16

16:                                               ; preds = %check_time_rounding.exit.thread, %check_time_rounding.exit, %2, %13
  %.0 = phi ptr [ %15, %13 ], [ null, %2 ], [ null, %check_time_rounding.exit ], [ null, %check_time_rounding.exit.thread ]
  call void @llvm.lifetime.end.p0(i64 4, ptr nonnull %5) #3
  call void @llvm.lifetime.end.p0(i64 8, ptr nonnull %4) #3
  call void @llvm.lifetime.end.p0(i64 8, ptr nonnull %3) #3
  ret ptr %.0
}